; Function Attrs: mustprogress uwtable
define internal fastcc noundef nonnull align 8 dereferenceable(8) ptr @_ZN2cvlsERSoRKNS_3MatE(ptr noundef nonnull returned align 8 dereferenceable(8) %0, ptr noundef nonnull align 8 dereferenceable(96) %1) unnamed_addr #6 personality ptr @__gxx_personality_v0 {
  %3 = alloca %"struct.cv::Ptr", align 8
  %4 = alloca %"struct.cv::Ptr.25", align 8
  call void @_ZN2cv9Formatter3getENS0_10FormatTypeE(ptr dead_on_unwind nonnull writable sret(%"struct.cv::Ptr.25") align 8 %4, i32 noundef 0)
  %5 = load ptr, ptr %4, align 8
  %6 = load ptr, ptr %5, align 8
  %7 = getelementptr inbounds i8, ptr %6, i64 16
  %8 = load ptr, ptr %7, align 8
  invoke void %8(ptr dead_on_unwind nonnull writable sret(%"struct.cv::Ptr") align 8 %3, ptr noundef nonnull align 8 dereferenceable(8) %5, ptr noundef nonnull align 8 dereferenceable(96) %1)
          to label %9 unwind label %95

9:                                                ; preds = %2
  %10 = load ptr, ptr %3, align 8
  %11 = load ptr, ptr %10, align 8
  %12 = getelementptr inbounds i8, ptr %11, i64 8
  %13 = load ptr, ptr %12, align 8
  invoke void %13(ptr noundef nonnull align 8 dereferenceable(8) %10)
          to label %.noexc unwind label %.loopexit.split-lp

.noexc:                                           ; preds = %9
  %14 = load ptr, ptr %3, align 8
  %15 = load ptr, ptr %14, align 8
  %16 = load ptr, ptr %15, align 8
  %17 = invoke noundef ptr %16(ptr noundef nonnull align 8 dereferenceable(8) %14)
          to label %.noexc5 unwind label %.loopexit.split-lp

.noexc5:                                          ; preds = %.noexc
  %.not4.i = icmp eq ptr %17, null
  br i1 %.not4.i, label %_ZN2cvlsERSoNS_3PtrINS_9FormattedEEE.exit, label %.lr.ph.i

.lr.ph.i:                                         ; preds = %.noexc5, %.noexc7
  %.05.i = phi ptr [ %22, %.noexc7 ], [ %17, %.noexc5 ]
  %18 = invoke noundef nonnull align 8 dereferenceable(8) ptr @_ZStlsISt11char_traitsIcEERSt13basic_ostreamIcT_ES5_PKc(ptr noundef nonnull align 8 dereferenceable(8) %0, ptr noundef nonnull %.05.i)
          to label %.noexc6 unwind label %.loopexit

.noexc6:                                          ; preds = %.lr.ph.i
  %19 = load ptr, ptr %3, align 8
  %20 = load ptr, ptr %19, align 8
  %21 = load ptr, ptr %20, align 8
  %22 = invoke noundef ptr %21(ptr noundef nonnull align 8 dereferenceable(8) %19)
          to label %.noexc7 unwind label %.loopexit

.noexc7:                                          ; preds = %.noexc6
  %.not.i = icmp eq ptr %22, null
  br i1 %.not.i, label %_ZN2cvlsERSoNS_3PtrINS_9FormattedEEE.exit, label %.lr.ph.i, !llvm.loop !761

_ZN2cvlsERSoNS_3PtrINS_9FormattedEEE.exit:        ; preds = %.noexc7, %.noexc5
  %23 = getelementptr inbounds i8, ptr %3, i64 8
  %24 = load ptr, ptr %23, align 8
  %.not.i.i.i.i = icmp eq ptr %24, null
  br i1 %.not.i.i.i.i, label %_ZN2cv3PtrINS_9FormattedEED2Ev.exit, label %25

25:                                               ; preds = %_ZN2cvlsERSoNS_3PtrINS_9FormattedEEE.exit
  %26 = getelementptr inbounds i8, ptr %24, i64 8
  %27 = load atomic i64, ptr %26 acquire, align 8
  %28 = icmp eq i64 %27, 4294967297
  %29 = trunc i64 %27 to i32
  br i1 %28, label %30, label %35

30:                                               ; preds = %25
  store i32 0, ptr %26, align 8
  %31 = getelementptr inbounds i8, ptr %24, i64 12
  store i32 0, ptr %31, align 4
  %32 = load ptr, ptr %24, align 8
  %33 = getelementptr inbounds i8, ptr %32, i64 16
  %34 = load ptr, ptr %33, align 8
  call void %34(ptr noundef nonnull align 8 dereferenceable(16) %24) #28
  br label %_ZNSt16_Sp_counted_baseILN9__gnu_cxx12_Lock_policyE2EE24_M_release_last_use_coldEv.exit.sink.split.i.i.i.i.i

35:                                               ; preds = %25
  %36 = load i8, ptr @__libc_single_threaded, align 1
  %.not.i.i.i.i.i = icmp eq i8 %36, 0
  br i1 %.not.i.i.i.i.i, label %39, label %37

37:                                               ; preds = %35
  %38 = add nsw i32 %29, -1
  store i32 %38, ptr %26, align 4
  br label %41

39:                                               ; preds = %35
  %40 = atomicrmw volatile add ptr %26, i32 -1 acq_rel, align 4
  br label %41

41:                                               ; preds = %39, %37
  %.0.i.i.i.i.i = phi i32 [ %29, %37 ], [ %40, %39 ]
  %42 = icmp eq i32 %.0.i.i.i.i.i, 1
  br i1 %42, label %43, label %_ZN2cv3PtrINS_9FormattedEED2Ev.exit

43:                                               ; preds = %41
  %44 = load ptr, ptr %24, align 8
  %45 = getelementptr inbounds i8, ptr %44, i64 16
  %46 = load ptr, ptr %45, align 8
  call void %46(ptr noundef nonnull align 8 dereferenceable(16) %24) #28
  %47 = getelementptr inbounds i8, ptr %24, i64 12
  %48 = load i8, ptr @__libc_single_threaded, align 1
  %.not.i.i.i.i.i.i.i = icmp eq i8 %48, 0
  br i1 %.not.i.i.i.i.i.i.i, label %52, label %49

49:                                               ; preds = %43
  %50 = load i32, ptr %47, align 4
  %51 = add nsw i32 %50, -1
  store i32 %51, ptr %47, align 4
  br label %54

52:                                               ; preds = %43
  %53 = atomicrmw volatile add ptr %47, i32 -1 acq_rel, align 4
  br label %54

54:                                               ; preds = %52, %49
  %.0.i.i.i.i.i.i.i = phi i32 [ %50, %49 ], [ %53, %52 ]
  %55 = icmp eq i32 %.0.i.i.i.i.i.i.i, 1
  br i1 %55, label %_ZNSt16_Sp_counted_baseILN9__gnu_cxx12_Lock_policyE2EE24_M_release_last_use_coldEv.exit.sink.split.i.i.i.i.i, label %_ZN2cv3PtrINS_9FormattedEED2Ev.exit

_ZNSt16_Sp_counted_baseILN9__gnu_cxx12_Lock_policyE2EE24_M_release_last_use_coldEv.exit.sink.split.i.i.i.i.i: ; preds = %54, %30
  %56 = load ptr, ptr %24, align 8
  %57 = getelementptr inbounds i8, ptr %56, i64 24
  %58 = load ptr, ptr %57, align 8
  call void %58(ptr noundef nonnull align 8 dereferenceable(16) %24) #28
  br label %_ZN2cv3PtrINS_9FormattedEED2Ev.exit

_ZN2cv3PtrINS_9FormattedEED2Ev.exit:              ; preds = %_ZN2cvlsERSoNS_3PtrINS_9FormattedEEE.exit, %41, %54, %_ZNSt16_Sp_counted_baseILN9__gnu_cxx12_Lock_policyE2EE24_M_release_last_use_coldEv.exit.sink.split.i.i.i.i.i
  %59 = getelementptr inbounds i8, ptr %4, i64 8
  %60 = load ptr, ptr %59, align 8
  %.not.i.i.i.i8 = icmp eq ptr %60, null
  br i1 %.not.i.i.i.i8, label %_ZN2cv3PtrINS_9FormatterEED2Ev.exit, label %61

61:                                               ; preds = %_ZN2cv3PtrINS_9FormattedEED2Ev.exit
  %62 = getelementptr inbounds i8, ptr %60, i64 8
  %63 = load atomic i64, ptr %62 acquire, align 8
  %64 = icmp eq i64 %63, 4294967297
  %65 = trunc i64 %63 to i32
  br i1 %64, label %66, label %71

66:                                               ; preds = %61
  store i32 0, ptr %62, align 8
  %67 = getelementptr inbounds i8, ptr %60, i64 12
  store i32 0, ptr %67, align 4
  %68 = load ptr, ptr %60, align 8
  %69 = getelementptr inbounds i8, ptr %68, i64 16
  %70 = load ptr, ptr %69, align 8
  call void %70(ptr noundef nonnull align 8 dereferenceable(16) %60) #28
  br label %_ZNSt16_Sp_counted_baseILN9__gnu_cxx12_Lock_policyE2EE24_M_release_last_use_coldEv.exit.sink.split.i.i.i.i.i13

71:                                               ; preds = %61
  %72 = load i8, ptr @__libc_single_threaded, align 1
  %.not.i.i.i.i.i9 = icmp eq i8 %72, 0
  br i1 %.not.i.i.i.i.i9, label %75, label %73

73:                                               ; preds = %71
  %74 = add nsw i32 %65, -1
  store i32 %74, ptr %62, align 4
  br label %77

75:                                               ; preds = %71
  %76 = atomicrmw volatile add ptr %62, i32 -1 acq_rel, align 4
  br label %77

77:                                               ; preds = %75, %73
  %.0.i.i.i.i.i10 = phi i32 [ %65, %73 ], [ %76, %75 ]
  %78 = icmp eq i32 %.0.i.i.i.i.i10, 1
  br i1 %78, label %79, label %_ZN2cv3PtrINS_9FormatterEED2Ev.exit

79:                                               ; preds = %77
  %80 = load ptr, ptr %60, align 8
  %81 = getelementptr inbounds i8, ptr %80, i64 16
  %82 = load ptr, ptr %81, align 8
  call void %82(ptr noundef nonnull align 8 dereferenceable(16) %60) #28
  %83 = getelementptr inbounds i8, ptr %60, i64 12
  %84 = load i8, ptr @__libc_single_threaded, align 1
  %.not.i.i.i.i.i.i.i11 = icmp eq i8 %84, 0
  br i1 %.not.i.i.i.i.i.i.i11, label %88, label %85

85:                                               ; preds = %79
  %86 = load i32, ptr %83, align 4
  %87 = add nsw i32 %86, -1
  store i32 %87, ptr %83, align 4
  br label %90

88:                                               ; preds = %79
  %89 = atomicrmw volatile add ptr %83, i32 -1 acq_rel, align 4
  br label %90

90:                                               ; preds = %88, %85
  %.0.i.i.i.i.i.i.i12 = phi i32 [ %86, %85 ], [ %89, %88 ]
  %91 = icmp eq i32 %.0.i.i.i.i.i.i.i12, 1
  br i1 %91, label %_ZNSt16_Sp_counted_baseILN9__gnu_cxx12_Lock_policyE2EE24_M_release_last_use_coldEv.exit.sink.split.i.i.i.i.i13, label %_ZN2cv3PtrINS_9FormatterEED2Ev.exit

_ZNSt16_Sp_counted_baseILN9__gnu_cxx12_Lock_policyE2EE24_M_release_last_use_coldEv.exit.sink.split.i.i.i.i.i13: ; preds = %90, %66
  %92 = load ptr, ptr %60, align 8
  %93 = getelementptr inbounds i8, ptr %92, i64 24
  %94 = load ptr, ptr %93, align 8
  call void %94(ptr noundef nonnull align 8 dereferenceable(16) %60) #28
  br label %_ZN2cv3PtrINS_9FormatterEED2Ev.exit

_ZN2cv3PtrINS_9FormatterEED2Ev.exit:              ; preds = %_ZN2cv3PtrINS_9FormattedEED2Ev.exit, %77, %90, %_ZNSt16_Sp_counted_baseILN9__gnu_cxx12_Lock_policyE2EE24_M_release_last_use_coldEv.exit.sink.split.i.i.i.i.i13
  ret ptr %0

95:                                               ; preds = %2
  %96 = landingpad { ptr, i32 }
          cleanup
  br label %98

.loopexit:                                        ; preds = %.lr.ph.i, %.noexc6
  %lpad.loopexit = landingpad { ptr, i32 }
          cleanup
  br label %97

.loopexit.split-lp:                               ; preds = %9, %.noexc
  %lpad.loopexit.split-lp = landingpad { ptr, i32 }
          cleanup
  br label %97

97:                                               ; preds = %.loopexit.split-lp, %.loopexit
  %lpad.phi = phi { ptr, i32 } [ %lpad.loopexit, %.loopexit ], [ %lpad.loopexit.split-lp, %.loopexit.split-lp ]
  call void @_ZN2cv3PtrINS_9FormattedEED2Ev(ptr noundef nonnull align 8 dereferenceable(16) %3) #28
  br label %98

98:                                               ; preds = %97, %95
  %.pn = phi { ptr, i32 } [ %lpad.phi, %97 ], [ %96, %95 ]
  call void @_ZN2cv3PtrINS_9FormatterEED2Ev(ptr noundef nonnull align 8 dereferenceable(16) %4) #28
  resume { ptr, i32 } %.pn
}